
Pre_Lab6.elf:     file format elf32-avr

Sections:
Idx Name          Size      VMA       LMA       File off  Algn
  0 .data         00000000  00800100  00800100  0000022a  2**0
                  CONTENTS, ALLOC, LOAD, DATA
  1 .text         000001d6  00000000  00000000  00000054  2**1
                  CONTENTS, ALLOC, LOAD, READONLY, CODE
  2 .comment      00000030  00000000  00000000  0000022a  2**0
                  CONTENTS, READONLY
  3 .note.gnu.avr.deviceinfo 0000003c  00000000  00000000  0000025c  2**2
                  CONTENTS, READONLY
  4 .debug_aranges 00000058  00000000  00000000  00000298  2**0
                  CONTENTS, READONLY, DEBUGGING
  5 .debug_info   000007e3  00000000  00000000  000002f0  2**0
                  CONTENTS, READONLY, DEBUGGING
  6 .debug_abbrev 000006e4  00000000  00000000  00000ad3  2**0
                  CONTENTS, READONLY, DEBUGGING
  7 .debug_line   0000031b  00000000  00000000  000011b7  2**0
                  CONTENTS, READONLY, DEBUGGING
  8 .debug_frame  00000138  00000000  00000000  000014d4  2**2
                  CONTENTS, READONLY, DEBUGGING
  9 .debug_str    000003a7  00000000  00000000  0000160c  2**0
                  CONTENTS, READONLY, DEBUGGING
 10 .debug_loc    00000266  00000000  00000000  000019b3  2**0
                  CONTENTS, READONLY, DEBUGGING
 11 .debug_ranges 00000048  00000000  00000000  00001c19  2**0
                  CONTENTS, READONLY, DEBUGGING

Disassembly of section .text:

00000000 <__vectors>:
   0:	0c 94 34 00 	jmp	0x68	; 0x68 <__ctors_end>
   4:	0c 94 3e 00 	jmp	0x7c	; 0x7c <__bad_interrupt>
   8:	0c 94 3e 00 	jmp	0x7c	; 0x7c <__bad_interrupt>
   c:	0c 94 3e 00 	jmp	0x7c	; 0x7c <__bad_interrupt>
  10:	0c 94 3e 00 	jmp	0x7c	; 0x7c <__bad_interrupt>
  14:	0c 94 3e 00 	jmp	0x7c	; 0x7c <__bad_interrupt>
  18:	0c 94 3e 00 	jmp	0x7c	; 0x7c <__bad_interrupt>
  1c:	0c 94 3e 00 	jmp	0x7c	; 0x7c <__bad_interrupt>
  20:	0c 94 3e 00 	jmp	0x7c	; 0x7c <__bad_interrupt>
  24:	0c 94 3e 00 	jmp	0x7c	; 0x7c <__bad_interrupt>
  28:	0c 94 3e 00 	jmp	0x7c	; 0x7c <__bad_interrupt>
  2c:	0c 94 3e 00 	jmp	0x7c	; 0x7c <__bad_interrupt>
  30:	0c 94 3e 00 	jmp	0x7c	; 0x7c <__bad_interrupt>
  34:	0c 94 3e 00 	jmp	0x7c	; 0x7c <__bad_interrupt>
  38:	0c 94 3e 00 	jmp	0x7c	; 0x7c <__bad_interrupt>
  3c:	0c 94 3e 00 	jmp	0x7c	; 0x7c <__bad_interrupt>
  40:	0c 94 3e 00 	jmp	0x7c	; 0x7c <__bad_interrupt>
  44:	0c 94 3e 00 	jmp	0x7c	; 0x7c <__bad_interrupt>
  48:	0c 94 93 00 	jmp	0x126	; 0x126 <__vector_18>
  4c:	0c 94 3e 00 	jmp	0x7c	; 0x7c <__bad_interrupt>
  50:	0c 94 3e 00 	jmp	0x7c	; 0x7c <__bad_interrupt>
  54:	0c 94 bd 00 	jmp	0x17a	; 0x17a <__vector_21>
  58:	0c 94 3e 00 	jmp	0x7c	; 0x7c <__bad_interrupt>
  5c:	0c 94 3e 00 	jmp	0x7c	; 0x7c <__bad_interrupt>
  60:	0c 94 3e 00 	jmp	0x7c	; 0x7c <__bad_interrupt>
  64:	0c 94 3e 00 	jmp	0x7c	; 0x7c <__bad_interrupt>

00000068 <__ctors_end>:
  68:	11 24       	eor	r1, r1
  6a:	1f be       	out	0x3f, r1	; 63
  6c:	cf ef       	ldi	r28, 0xFF	; 255
  6e:	d8 e0       	ldi	r29, 0x08	; 8
  70:	de bf       	out	0x3e, r29	; 62
  72:	cd bf       	out	0x3d, r28	; 61
  74:	0e 94 7a 00 	call	0xf4	; 0xf4 <main>
  78:	0c 94 e9 00 	jmp	0x1d2	; 0x1d2 <_exit>

0000007c <__bad_interrupt>:
  7c:	0c 94 00 00 	jmp	0	; 0x0 <__vectors>

00000080 <initUART>:
	sei();
}

void initUART(){
	
	DDRD |= (1 << DDD1);
  80:	8a b1       	in	r24, 0x0a	; 10
  82:	82 60       	ori	r24, 0x02	; 2
  84:	8a b9       	out	0x0a, r24	; 10
	DDRD &= ~(1 << DDD0);
  86:	8a b1       	in	r24, 0x0a	; 10
  88:	8e 7f       	andi	r24, 0xFE	; 254
  8a:	8a b9       	out	0x0a, r24	; 10
	
	UCSR0A = 0;
  8c:	10 92 c0 00 	sts	0x00C0, r1	; 0x8000c0 <__TEXT_REGION_LENGTH__+0x7f80c0>
	
	UCSR0B |= (1 << RXCIE0) | (1 << RXEN0) | (1 << TXEN0);
  90:	e1 ec       	ldi	r30, 0xC1	; 193
  92:	f0 e0       	ldi	r31, 0x00	; 0
  94:	80 81       	ld	r24, Z
  96:	88 69       	ori	r24, 0x98	; 152
  98:	80 83       	st	Z, r24
	
	UCSR0C |= (1 << UCSZ01) | (1 << UCSZ00);
  9a:	e2 ec       	ldi	r30, 0xC2	; 194
  9c:	f0 e0       	ldi	r31, 0x00	; 0
  9e:	80 81       	ld	r24, Z
  a0:	86 60       	ori	r24, 0x06	; 6
  a2:	80 83       	st	Z, r24
	
	UBRR0 = 103;
  a4:	87 e6       	ldi	r24, 0x67	; 103
  a6:	90 e0       	ldi	r25, 0x00	; 0
  a8:	90 93 c5 00 	sts	0x00C5, r25	; 0x8000c5 <__TEXT_REGION_LENGTH__+0x7f80c5>
  ac:	80 93 c4 00 	sts	0x00C4, r24	; 0x8000c4 <__TEXT_REGION_LENGTH__+0x7f80c4>
  b0:	08 95       	ret

000000b2 <initADC>:
}

void initADC(){
	
	ADMUX = 0;
  b2:	ec e7       	ldi	r30, 0x7C	; 124
  b4:	f0 e0       	ldi	r31, 0x00	; 0
  b6:	10 82       	st	Z, r1
	ADMUX |= (1 << REFS0) | (1 << ADLAR);
  b8:	80 81       	ld	r24, Z
  ba:	80 66       	ori	r24, 0x60	; 96
  bc:	80 83       	st	Z, r24
	
	ADCSRA = 0;
  be:	ea e7       	ldi	r30, 0x7A	; 122
  c0:	f0 e0       	ldi	r31, 0x00	; 0
  c2:	10 82       	st	Z, r1
	ADCSRA = (1 << ADPS1) | (1 << ADPS0) | (1 << ADIE) | (1 << ADEN);
  c4:	8b e8       	ldi	r24, 0x8B	; 139
  c6:	80 83       	st	Z, r24
  c8:	08 95       	ret

000000ca <setup>:
    }
}


void setup(){
	cli();
  ca:	f8 94       	cli
	
	initUART();
  cc:	0e 94 40 00 	call	0x80	; 0x80 <initUART>
	initADC();
  d0:	0e 94 59 00 	call	0xb2	; 0xb2 <initADC>
	
	ADCSRA |= (1 << ADSC);
  d4:	ea e7       	ldi	r30, 0x7A	; 122
  d6:	f0 e0       	ldi	r31, 0x00	; 0
  d8:	80 81       	ld	r24, Z
  da:	80 64       	ori	r24, 0x40	; 64
  dc:	80 83       	st	Z, r24
	
	DDRB = 0xFF;
  de:	8f ef       	ldi	r24, 0xFF	; 255
  e0:	84 b9       	out	0x04, r24	; 4
	
	sei();
  e2:	78 94       	sei
  e4:	08 95       	ret

000000e6 <writeChar>:
	ADCSRA = (1 << ADPS1) | (1 << ADPS0) | (1 << ADIE) | (1 << ADEN);
}

void writeChar(char caracter){
	
	while ((UCSR0A & (1 << UDRE0)) == 0);
  e6:	90 91 c0 00 	lds	r25, 0x00C0	; 0x8000c0 <__TEXT_REGION_LENGTH__+0x7f80c0>
  ea:	95 ff       	sbrs	r25, 5
  ec:	fc cf       	rjmp	.-8      	; 0xe6 <writeChar>
	UDR0 = caracter;
  ee:	80 93 c6 00 	sts	0x00C6, r24	; 0x8000c6 <__TEXT_REGION_LENGTH__+0x7f80c6>
  f2:	08 95       	ret

000000f4 <main>:
void write_str(char* texto);
void initADC();

int main(void)
{
	setup();
  f4:	0e 94 65 00 	call	0xca	; 0xca <setup>
	writeChar('h');
  f8:	88 e6       	ldi	r24, 0x68	; 104
  fa:	0e 94 73 00 	call	0xe6	; 0xe6 <writeChar>
  fe:	ff cf       	rjmp	.-2      	; 0xfe <main+0xa>

00000100 <write_str>:
	UDR0 = caracter;

}

void write_str(char* texto)
{
 100:	0f 93       	push	r16
 102:	1f 93       	push	r17
 104:	cf 93       	push	r28
 106:	8c 01       	movw	r16, r24
	for(uint8_t i = 0; *(texto+i) != 'ÿ'; i++)
 108:	c0 e0       	ldi	r28, 0x00	; 0
 10a:	03 c0       	rjmp	.+6      	; 0x112 <write_str+0x12>
	{
		writeChar(*(texto+i));
 10c:	0e 94 73 00 	call	0xe6	; 0xe6 <writeChar>

}

void write_str(char* texto)
{
	for(uint8_t i = 0; *(texto+i) != 'ÿ'; i++)
 110:	cf 5f       	subi	r28, 0xFF	; 255
 112:	f8 01       	movw	r30, r16
 114:	ec 0f       	add	r30, r28
 116:	f1 1d       	adc	r31, r1
 118:	80 81       	ld	r24, Z
 11a:	8f 3f       	cpi	r24, 0xFF	; 255
 11c:	b9 f7       	brne	.-18     	; 0x10c <write_str+0xc>
	{
		writeChar(*(texto+i));
	}
}
 11e:	cf 91       	pop	r28
 120:	1f 91       	pop	r17
 122:	0f 91       	pop	r16
 124:	08 95       	ret

00000126 <__vector_18>:

ISR(USART_RX_vect){
 126:	1f 92       	push	r1
 128:	0f 92       	push	r0
 12a:	0f b6       	in	r0, 0x3f	; 63
 12c:	0f 92       	push	r0
 12e:	11 24       	eor	r1, r1
 130:	2f 93       	push	r18
 132:	3f 93       	push	r19
 134:	4f 93       	push	r20
 136:	5f 93       	push	r21
 138:	6f 93       	push	r22
 13a:	7f 93       	push	r23
 13c:	8f 93       	push	r24
 13e:	9f 93       	push	r25
 140:	af 93       	push	r26
 142:	bf 93       	push	r27
 144:	cf 93       	push	r28
 146:	ef 93       	push	r30
 148:	ff 93       	push	r31
	
	char temp = UDR0;
 14a:	c0 91 c6 00 	lds	r28, 0x00C6	; 0x8000c6 <__TEXT_REGION_LENGTH__+0x7f80c6>
	writeChar('r');
 14e:	82 e7       	ldi	r24, 0x72	; 114
 150:	0e 94 73 00 	call	0xe6	; 0xe6 <writeChar>
	PORTB = temp;
 154:	c5 b9       	out	0x05, r28	; 5
	
}
 156:	ff 91       	pop	r31
 158:	ef 91       	pop	r30
 15a:	cf 91       	pop	r28
 15c:	bf 91       	pop	r27
 15e:	af 91       	pop	r26
 160:	9f 91       	pop	r25
 162:	8f 91       	pop	r24
 164:	7f 91       	pop	r23
 166:	6f 91       	pop	r22
 168:	5f 91       	pop	r21
 16a:	4f 91       	pop	r20
 16c:	3f 91       	pop	r19
 16e:	2f 91       	pop	r18
 170:	0f 90       	pop	r0
 172:	0f be       	out	0x3f, r0	; 63
 174:	0f 90       	pop	r0
 176:	1f 90       	pop	r1
 178:	18 95       	reti

0000017a <__vector_21>:

ISR(ADC_vect){
 17a:	1f 92       	push	r1
 17c:	0f 92       	push	r0
 17e:	0f b6       	in	r0, 0x3f	; 63
 180:	0f 92       	push	r0
 182:	11 24       	eor	r1, r1
 184:	2f 93       	push	r18
 186:	3f 93       	push	r19
 188:	4f 93       	push	r20
 18a:	5f 93       	push	r21
 18c:	6f 93       	push	r22
 18e:	7f 93       	push	r23
 190:	8f 93       	push	r24
 192:	9f 93       	push	r25
 194:	af 93       	push	r26
 196:	bf 93       	push	r27
 198:	ef 93       	push	r30
 19a:	ff 93       	push	r31
	char ent = ADCH;
 19c:	80 91 79 00 	lds	r24, 0x0079	; 0x800079 <__TEXT_REGION_LENGTH__+0x7f8079>
	write_str(ent);
 1a0:	90 e0       	ldi	r25, 0x00	; 0
 1a2:	0e 94 80 00 	call	0x100	; 0x100 <write_str>
	ADCSRA |= (1 << ADSC);
 1a6:	ea e7       	ldi	r30, 0x7A	; 122
 1a8:	f0 e0       	ldi	r31, 0x00	; 0
 1aa:	80 81       	ld	r24, Z
 1ac:	80 64       	ori	r24, 0x40	; 64
 1ae:	80 83       	st	Z, r24
 1b0:	ff 91       	pop	r31
 1b2:	ef 91       	pop	r30
 1b4:	bf 91       	pop	r27
 1b6:	af 91       	pop	r26
 1b8:	9f 91       	pop	r25
 1ba:	8f 91       	pop	r24
 1bc:	7f 91       	pop	r23
 1be:	6f 91       	pop	r22
 1c0:	5f 91       	pop	r21
 1c2:	4f 91       	pop	r20
 1c4:	3f 91       	pop	r19
 1c6:	2f 91       	pop	r18
 1c8:	0f 90       	pop	r0
 1ca:	0f be       	out	0x3f, r0	; 63
 1cc:	0f 90       	pop	r0
 1ce:	1f 90       	pop	r1
 1d0:	18 95       	reti

000001d2 <_exit>:
 1d2:	f8 94       	cli

000001d4 <__stop_program>:
 1d4:	ff cf       	rjmp	.-2      	; 0x1d4 <__stop_program>
